; Function Attrs: null_pointer_is_valid sspstrong uwtable
define hidden i32 @ipv4_to_str(ptr noundef readonly captures(none) %0, ptr noundef %1, i32 noundef %2) #6 {
  %4 = getelementptr inbounds nuw i8, ptr %0, i64 8
  %5 = load ptr, ptr %4, align 8
  tail call void @ip_addr_to_str_buf(ptr noundef %5, ptr noundef %1, i32 noundef %2)
  %6 = tail call i64 @strlen(ptr noundef %1) #17
  %7 = trunc i64 %6 to i32
  %8 = add i32 %7, 1
  ret i32 %8
}